target datalayout = "e-m:e-p270:32:32-p271:32:32-p272:64:64-i64:64-i128:128-f80:128-n8:16:32:64-S128"
target triple = "x86_64-pc-linux-gnu"

%struct.job_info_msg = type { i64, i64, i32, ptr }
%struct.job_info = type { ptr, i64, ptr, ptr, i32, ptr, i32, i32, i32, ptr, i32, ptr, i16, ptr, i64, i16, ptr, ptr, ptr, ptr, ptr, ptr, ptr, ptr, i16, i16, i16, double, i16, i32, i32, i32, ptr, ptr, i64, i32, ptr, i32, i64, i64, ptr, ptr, i32, ptr, ptr, ptr, ptr, i64, ptr, i64, ptr, i32, ptr, ptr, i32, i32, ptr, i32, i32, ptr, ptr, i32, i64, ptr, i16, ptr, i32, i32, ptr, ptr, ptr, ptr, ptr, i32, ptr, i16, i16, i16, i16, i16, i32, i32, i32, i16, ptr, ptr, i64, i16, i32, i64, i64, i64, i32, ptr, ptr, i32, ptr, i8, ptr, ptr, i32, i16, i64, i16, ptr, ptr, ptr, ptr, i16, i32, i16, i16, i64, i16, ptr, i32, ptr, ptr, ptr, i16, i64, i64, ptr, i32, i32, i16, ptr, ptr, ptr, ptr, ptr, ptr, ptr, ptr, i32, ptr, i32, ptr, ptr }

@federation_flag = external global i32, align 4
@local_flag = external global i32, align 4
@quiet_flag = external global i32, align 4
@exit_code = external global i32, align 4
@.str.5 = private unnamed_addr constant [22 x i8] c"slurm_load_jobs error\00", align 1
@old_node_info_ptr = external global ptr, align 8
@.str.67 = private unnamed_addr constant [23 x i8] c"slurm_load_nodes error\00", align 1

; Function Attrs: nounwind uwtable
define internal ptr @_get_node_info_for_jobs() #0 {
  %1 = alloca ptr, align 8
  %2 = alloca i32, align 4
  %3 = alloca ptr, align 8
  %4 = alloca i16, align 2
  %5 = alloca i32, align 4
  call void @llvm.lifetime.start.p0(i64 4, ptr %2) #9
  call void @llvm.lifetime.start.p0(i64 8, ptr %3) #9
  store ptr null, ptr %3, align 8
  call void @llvm.lifetime.start.p0(i64 2, ptr %4) #9
  store i16 0, ptr %4, align 2
  %6 = load ptr, ptr @old_node_info_ptr, align 8
  %7 = icmp ne ptr %6, null
  br i1 %7, label %8, label %10

8:                                                ; preds = %0
  %9 = load ptr, ptr @old_node_info_ptr, align 8
  store ptr %9, ptr %1, align 8
  store i32 1, ptr %5, align 4
  br label %42

10:                                               ; preds = %0
  %11 = load i16, ptr %4, align 2
  %12 = zext i16 %11 to i64
  %13 = or i64 %12, 1
  %14 = trunc i64 %13 to i16
  store i16 %14, ptr %4, align 2
  %15 = load i32, ptr @federation_flag, align 4
  %16 = icmp ne i32 %15, 0
  br i1 %16, label %17, label %22

17:                                               ; preds = %10
  %18 = load i16, ptr %4, align 2
  %19 = zext i16 %18 to i64
  %20 = or i64 %19, 64
  %21 = trunc i64 %20 to i16
  store i16 %21, ptr %4, align 2
  br label %22

22:                                               ; preds = %17, %10
  %23 = load i32, ptr @local_flag, align 4
  %24 = icmp ne i32 %23, 0
  br i1 %24, label %25, label %30

25:                                               ; preds = %22
  %26 = load i16, ptr %4, align 2
  %27 = zext i16 %26 to i64
  %28 = or i64 %27, 16
  %29 = trunc i64 %28 to i16
  store i16 %29, ptr %4, align 2
  br label %30

30:                                               ; preds = %25, %22
  %31 = load i16, ptr %4, align 2
  %32 = call i32 @scontrol_load_nodes(ptr noundef %3, i16 noundef zeroext %31)
  store i32 %32, ptr %2, align 4
  %33 = load i32, ptr %2, align 4
  %34 = icmp ne i32 %33, 0
  br i1 %34, label %35, label %40

35:                                               ; preds = %30
  store i32 1, ptr @exit_code, align 4
  %36 = load i32, ptr @quiet_flag, align 4
  %37 = icmp ne i32 %36, 1
  br i1 %37, label %38, label %39

38:                                               ; preds = %35
  call void @slurm_perror(ptr noundef @.str.67)
  br label %39

39:                                               ; preds = %38, %35
  store ptr null, ptr %1, align 8
  store i32 1, ptr %5, align 4
  br label %42

40:                                               ; preds = %30
  %41 = load ptr, ptr %3, align 8
  store ptr %41, ptr %1, align 8
  store i32 1, ptr %5, align 4
  br label %42

42:                                               ; preds = %40, %39, %8
  call void @llvm.lifetime.end.p0(i64 2, ptr %4) #9
  call void @llvm.lifetime.end.p0(i64 8, ptr %3) #9
  call void @llvm.lifetime.end.p0(i64 4, ptr %2) #9
  %43 = load ptr, ptr %1, align 8
  ret ptr %43
}

; Function Attrs: nounwind uwtable
define dso_local void @scontrol_print_completing() #0 {
  %1 = alloca i32, align 4
  %2 = alloca i32, align 4
  %3 = alloca ptr, align 8
  %4 = alloca ptr, align 8
  %5 = alloca ptr, align 8
  %6 = alloca i32, align 4
  call void @llvm.lifetime.start.p0(i64 4, ptr %1) #9
  call void @llvm.lifetime.start.p0(i64 4, ptr %2) #9
  call void @llvm.lifetime.start.p0(i64 8, ptr %3) #9
  call void @llvm.lifetime.start.p0(i64 8, ptr %4) #9
  call void @llvm.lifetime.start.p0(i64 8, ptr %5) #9
  %7 = call i32 @scontrol_load_job(ptr noundef %3, i32 noundef 0)
  store i32 %7, ptr %1, align 4
  %8 = load i32, ptr %1, align 4
  %9 = icmp ne i32 %8, 0
  br i1 %9, label %10, label %15

10:                                               ; preds = %0
  store i32 1, ptr @exit_code, align 4
  %11 = load i32, ptr @quiet_flag, align 4
  %12 = icmp ne i32 %11, 1
  br i1 %12, label %13, label %14

13:                                               ; preds = %10
  call void @slurm_perror(ptr noundef @.str.5)
  br label %14

14:                                               ; preds = %13, %10
  store i32 1, ptr %6, align 4
  br label %50

15:                                               ; preds = %0
  %16 = call ptr @_get_node_info_for_jobs()
  store ptr %16, ptr %5, align 8
  %17 = icmp ne ptr %16, null
  br i1 %17, label %19, label %18

18:                                               ; preds = %15
  store i32 1, ptr %6, align 4
  br label %50

19:                                               ; preds = %15
  %20 = load ptr, ptr %3, align 8
  %21 = getelementptr inbounds nuw %struct.job_info_msg, ptr %20, i32 0, i32 3
  %22 = load ptr, ptr %21, align 8
  store ptr %22, ptr %4, align 8
  store i32 0, ptr %2, align 4
  br label %23

23:                                               ; preds = %46, %19
  %24 = load i32, ptr %2, align 4
  %25 = load ptr, ptr %3, align 8
  %26 = getelementptr inbounds nuw %struct.job_info_msg, ptr %25, i32 0, i32 2
  %27 = load i32, ptr %26, align 8
  %28 = icmp ult i32 %24, %27
  br i1 %28, label %29, label %49

29:                                               ; preds = %23
  %30 = load ptr, ptr %4, align 8
  %31 = load i32, ptr %2, align 4
  %32 = sext i32 %31 to i64
  %33 = getelementptr inbounds %struct.job_info, ptr %30, i64 %32
  %34 = getelementptr inbounds nuw %struct.job_info, ptr %33, i32 0, i32 61
  %35 = load i32, ptr %34, align 8
  %36 = zext i32 %35 to i64
  %37 = and i64 %36, 32768
  %38 = icmp ne i64 %37, 0
  br i1 %38, label %39, label %45

39:                                               ; preds = %29
  %40 = load ptr, ptr %4, align 8
  %41 = load i32, ptr %2, align 4
  %42 = sext i32 %41 to i64
  %43 = getelementptr inbounds %struct.job_info, ptr %40, i64 %42
  %44 = load ptr, ptr %5, align 8
  call void @scontrol_print_completing_job(ptr noundef %43, ptr noundef %44)
  br label %45

45:                                               ; preds = %39, %29
  br label %46

46:                                               ; preds = %45
  %47 = load i32, ptr %2, align 4
  %48 = add nsw i32 %47, 1
  store i32 %48, ptr %2, align 4
  br label %23, !llvm.loop !8

49:                                               ; preds = %23
  store i32 0, ptr %6, align 4
  br label %50

50:                                               ; preds = %49, %18, %14
  call void @llvm.lifetime.end.p0(i64 8, ptr %5) #9
  call void @llvm.lifetime.end.p0(i64 8, ptr %4) #9
  call void @llvm.lifetime.end.p0(i64 8, ptr %3) #9
  call void @llvm.lifetime.end.p0(i64 4, ptr %2) #9
  call void @llvm.lifetime.end.p0(i64 4, ptr %1) #9
  %51 = load i32, ptr %6, align 4
  switch i32 %51, label %53 [
    i32 0, label %52
    i32 1, label %52
  ]

52:                                               ; preds = %50, %50
  ret void

53:                                               ; preds = %50
  unreachable
}