; Function Attrs: nounwind uwtable
define dso_local void @scontrol_print_completing() local_unnamed_addr #0 {
  %1 = alloca ptr, align 8
  %2 = alloca ptr, align 8
  call void @llvm.lifetime.start.p0(i64 8, ptr nonnull %2) #16
  %3 = call i32 @scontrol_load_job(ptr noundef nonnull %2, i32 noundef 0)
  %.not = icmp eq i32 %3, 0
  br i1 %.not, label %7, label %4

4:                                                ; preds = %0
  store i32 1, ptr @exit_code, align 4
  %5 = load i32, ptr @quiet_flag, align 4
  %.not10 = icmp eq i32 %5, 1
  br i1 %.not10, label %.loopexit, label %6

6:                                                ; preds = %4
  tail call void @slurm_perror(ptr noundef nonnull @.str.5) #16
  br label %.loopexit

7:                                                ; preds = %0
  call void @llvm.lifetime.start.p0(i64 8, ptr nonnull %1) #16
  store ptr null, ptr %1, align 8
  %8 = load ptr, ptr @old_node_info_ptr, align 8
  %.not.i = icmp eq ptr %8, null
  br i1 %.not.i, label %9, label %_get_node_info_for_jobs.exit.thread13

_get_node_info_for_jobs.exit.thread13:            ; preds = %7
  call void @llvm.lifetime.end.p0(i64 8, ptr nonnull %1) #16
  br label %18

9:                                                ; preds = %7
  %10 = load i32, ptr @federation_flag, align 4
  %.not7.i = icmp eq i32 %10, 0
  %spec.select.i = select i1 %.not7.i, i16 1, i16 65
  %11 = load i32, ptr @local_flag, align 4
  %.not8.i = icmp eq i32 %11, 0
  %12 = or disjoint i16 %spec.select.i, 16
  %.1.i = select i1 %.not8.i, i16 %spec.select.i, i16 %12
  %13 = call i32 @scontrol_load_nodes(ptr noundef nonnull %1, i16 noundef zeroext %.1.i) #16
  %.not9.i = icmp eq i32 %13, 0
  br i1 %.not9.i, label %_get_node_info_for_jobs.exit, label %14

14:                                               ; preds = %9
  store i32 1, ptr @exit_code, align 4
  %15 = load i32, ptr @quiet_flag, align 4
  %.not10.i = icmp eq i32 %15, 1
  br i1 %.not10.i, label %_get_node_info_for_jobs.exit.thread, label %16

16:                                               ; preds = %14
  call void @slurm_perror(ptr noundef nonnull @.str.67) #16
  br label %_get_node_info_for_jobs.exit.thread

_get_node_info_for_jobs.exit.thread:              ; preds = %16, %14
  call void @llvm.lifetime.end.p0(i64 8, ptr nonnull %1) #16
  br label %.loopexit

_get_node_info_for_jobs.exit:                     ; preds = %9
  %17 = load ptr, ptr %1, align 8
  call void @llvm.lifetime.end.p0(i64 8, ptr nonnull %1) #16
  %.not8 = icmp eq ptr %17, null
  br i1 %.not8, label %.loopexit, label %18

18:                                               ; preds = %_get_node_info_for_jobs.exit.thread13, %_get_node_info_for_jobs.exit
  %.05.i16 = phi ptr [ %8, %_get_node_info_for_jobs.exit.thread13 ], [ %17, %_get_node_info_for_jobs.exit ]
  %19 = load ptr, ptr %2, align 8
  %20 = getelementptr inbounds nuw i8, ptr %19, i64 24
  %21 = load ptr, ptr %20, align 8
  %22 = getelementptr inbounds nuw i8, ptr %19, i64 16
  %23 = load i32, ptr %22, align 8
  %.not18 = icmp eq i32 %23, 0
  br i1 %.not18, label %.loopexit, label %.lr.ph

.lr.ph:                                           ; preds = %18, %30
  %24 = phi i32 [ %31, %30 ], [ %23, %18 ]
  %indvars.iv = phi i64 [ %indvars.iv.next, %30 ], [ 0, %18 ]
  %25 = getelementptr inbounds nuw %struct.job_info, ptr %21, i64 %indvars.iv
  %26 = getelementptr inbounds nuw i8, ptr %25, i64 432
  %27 = load i32, ptr %26, align 8
  %28 = and i32 %27, 32768
  %.not9 = icmp eq i32 %28, 0
  br i1 %.not9, label %30, label %29

29:                                               ; preds = %.lr.ph
  call void @scontrol_print_completing_job(ptr noundef nonnull %25, ptr noundef nonnull %.05.i16)
  %.pre = load i32, ptr %22, align 8
  br label %30

30:                                               ; preds = %.lr.ph, %29
  %31 = phi i32 [ %24, %.lr.ph ], [ %.pre, %29 ]
  %indvars.iv.next = add nuw nsw i64 %indvars.iv, 1
  %32 = zext i32 %31 to i64
  %33 = icmp samesign ult i64 %indvars.iv.next, %32
  br i1 %33, label %.lr.ph, label %.loopexit, !llvm.loop !8

.loopexit:                                        ; preds = %30, %18, %_get_node_info_for_jobs.exit.thread, %_get_node_info_for_jobs.exit, %4, %6
  call void @llvm.lifetime.end.p0(i64 8, ptr nonnull %2) #16
  ret void
}